target datalayout = "e-m:e-p270:32:32-p271:32:32-p272:64:64-i64:64-i128:128-f80:128-n8:16:32:64-S128"
target triple = "x86_64-pc-linux-gnu"

@.str.93 = private unnamed_addr constant [7 x i8] c"NATIVE\00", align 1
@.str.94 = private unnamed_addr constant [7 x i8] c"MEMORY\00", align 1
@.str.95 = private unnamed_addr constant [5 x i8] c"FILE\00", align 1
@.str.96 = private unnamed_addr constant [3 x i8] c"LE\00", align 1
@.str.97 = private unnamed_addr constant [3 x i8] c"BE\00", align 1

; Function Attrs: nounwind uwtable
define internal i32 @set_binary_form(ptr noundef %0) #0 {
  %2 = alloca ptr, align 8
  %3 = alloca i32, align 4
  store ptr %0, ptr %2, align 8
  store i32 -1, ptr %3, align 4
  %4 = load ptr, ptr %2, align 8
  %5 = call i32 @strcmp(ptr noundef %4, ptr noundef @.str.93) #12
  %6 = icmp eq i32 %5, 0
  br i1 %6, label %11, label %7

7:                                                ; preds = %1
  %8 = load ptr, ptr %2, align 8
  %9 = call i32 @strcmp(ptr noundef %8, ptr noundef @.str.94) #12
  %10 = icmp eq i32 %9, 0
  br i1 %10, label %11, label %12

11:                                               ; preds = %7, %1
  store i32 0, ptr %3, align 4
  br label %30

12:                                               ; preds = %7
  %13 = load ptr, ptr %2, align 8
  %14 = call i32 @strcmp(ptr noundef %13, ptr noundef @.str.95) #12
  %15 = icmp eq i32 %14, 0
  br i1 %15, label %16, label %17

16:                                               ; preds = %12
  store i32 1, ptr %3, align 4
  br label %29

17:                                               ; preds = %12
  %18 = load ptr, ptr %2, align 8
  %19 = call i32 @strcmp(ptr noundef %18, ptr noundef @.str.96) #12
  %20 = icmp eq i32 %19, 0
  br i1 %20, label %21, label %22

21:                                               ; preds = %17
  store i32 2, ptr %3, align 4
  br label %28

22:                                               ; preds = %17
  %23 = load ptr, ptr %2, align 8
  %24 = call i32 @strcmp(ptr noundef %23, ptr noundef @.str.97) #12
  %25 = icmp eq i32 %24, 0
  br i1 %25, label %26, label %27

26:                                               ; preds = %22
  store i32 3, ptr %3, align 4
  br label %27

27:                                               ; preds = %26, %22
  br label %28

28:                                               ; preds = %27, %21
  br label %29

29:                                               ; preds = %28, %16
  br label %30

30:                                               ; preds = %29, %11
  %31 = load i32, ptr %3, align 4
  ret i32 %31
}