; Function Attrs: mustprogress nofree nounwind willreturn memory(argmem: read) uwtable
define internal fastcc range(i32 -1, 4) i32 @set_binary_form(ptr nocapture noundef readonly %0) unnamed_addr #14 {
  %2 = tail call i32 @strcmp(ptr noundef nonnull dereferenceable(1) %0, ptr noundef nonnull dereferenceable(7) @.str.93) #24
  %3 = icmp eq i32 %2, 0
  br i1 %3, label %.tail5, label %4

4:                                                ; preds = %1
  %5 = tail call i32 @strcmp(ptr noundef nonnull dereferenceable(1) %0, ptr noundef nonnull dereferenceable(7) @.str.94) #24
  %6 = icmp eq i32 %5, 0
  br i1 %6, label %.tail5, label %7

7:                                                ; preds = %4
  %8 = tail call i32 @strcmp(ptr noundef nonnull dereferenceable(1) %0, ptr noundef nonnull dereferenceable(5) @.str.95) #24
  %9 = icmp eq i32 %8, 0
  br i1 %9, label %.tail5, label %sub_0

sub_0:                                            ; preds = %7
  %10 = load i8, ptr %0, align 1
  switch i8 %10, label %.tail5 [
    i8 76, label %sub_1
    i8 66, label %sub_17
  ]

sub_1:                                            ; preds = %sub_0
  %11 = getelementptr inbounds i8, ptr %0, i64 1
  %12 = load i8, ptr %11, align 1
  %.not10 = icmp eq i8 %12, 69
  br i1 %.not10, label %.tail5.sink.split, label %.tail5

sub_17:                                           ; preds = %sub_0
  %13 = getelementptr inbounds i8, ptr %0, i64 1
  %14 = load i8, ptr %13, align 1
  %.not12 = icmp eq i8 %14, 69
  br i1 %.not12, label %.tail5.sink.split, label %.tail5

.tail5.sink.split:                                ; preds = %sub_17, %sub_1
  %.sink16 = phi i32 [ 2, %sub_1 ], [ 3, %sub_17 ]
  %15 = getelementptr inbounds i8, ptr %0, i64 2
  %16 = load i8, ptr %15, align 1
  %17 = icmp eq i8 %16, 0
  %spec.select = select i1 %17, i32 %.sink16, i32 -1
  br label %.tail5

.tail5:                                           ; preds = %.tail5.sink.split, %sub_0, %sub_1, %sub_17, %7, %1, %4
  %.0 = phi i32 [ 0, %4 ], [ 0, %1 ], [ 1, %7 ], [ -1, %sub_17 ], [ -1, %sub_1 ], [ -1, %sub_0 ], [ %spec.select, %.tail5.sink.split ]
  ret i32 %.0
}